target datalayout = "e-m:e-p270:32:32-p271:32:32-p272:64:64-i64:64-i128:128-f80:128-n8:16:32:64-S128"
target triple = "x86_64-pc-linux-gnu"

%"class.absl::lts_20240722::log_internal::Voidify" = type { i8 }
%"class.absl::lts_20240722::log_internal::LogMessage" = type { %"class.absl::lts_20240722::base_internal::ErrnoSaver", %"class.std::unique_ptr" }
%"class.absl::lts_20240722::base_internal::ErrnoSaver" = type { i32 }
%"class.std::unique_ptr" = type { %"struct.std::__uniq_ptr_data" }
%"struct.std::__uniq_ptr_data" = type { %"class.std::__uniq_ptr_impl" }
%"class.std::__uniq_ptr_impl" = type { %"class.std::tuple" }
%"class.std::tuple" = type { %"struct.std::_Tuple_impl" }
%"struct.std::_Tuple_impl" = type { %"struct.std::_Head_base.11" }
%"struct.std::_Head_base.11" = type { ptr }
%"class.absl::lts_20240722::log_internal::LogMessageFatal" = type { %"class.absl::lts_20240722::log_internal::LogMessage" }
%"class.std::basic_string_view" = type { i64, ptr }
%"class.grpc_core::Thread" = type { i32, ptr, %"class.grpc_core::Thread::Options" }
%"class.grpc_core::Thread::Options" = type { i8, i8, i64 }
%struct.completed_thread = type { %"class.grpc_core::Thread", ptr }

@_ZL4g_mu = internal global i64 0, align 8
@_ZL19g_completed_threads = internal global ptr null, align 8
@.str.7 = private unnamed_addr constant [107 x i8] c"generated/home/dtcxzyw/WorkSpace/Projects/compilers/llvm-opt-benchmark/bench/grpc/grpc/src/core/util/thd.h\00", align 1
@.str.8 = private unnamed_addr constant [17 x i8] c"state_ == FAILED\00", align 1

; Function Attrs: noinline noreturn nounwind uwtable
define linkonce_odr hidden void @__clang_call_terminate(ptr noundef %0) #12 comdat {
  %2 = call ptr @__cxa_begin_catch(ptr %0) #3
  call void @_ZSt9terminatev() #18
  unreachable
}

; Function Attrs: mustprogress nounwind uwtable
define linkonce_odr noundef i64 @_ZNSt11char_traitsIcE6lengthEPKc(ptr noundef %0) #6 comdat align 2 {
  %2 = alloca ptr, align 8
  store ptr %0, ptr %2, align 8, !tbaa !82
  %3 = load ptr, ptr %2, align 8, !tbaa !82
  %4 = call i64 @strlen(ptr noundef %3) #3
  ret i64 %4
}

; Function Attrs: mustprogress nounwind uwtable
define linkonce_odr void @_ZNKO4absl12lts_2024072212log_internal7VoidifyaaINS1_10LogMessageEEEvRKT_(ptr noundef nonnull align 1 dereferenceable(1) %0, ptr noundef nonnull align 8 dereferenceable(16) %1) #6 comdat align 2 {
  %3 = alloca ptr, align 8
  %4 = alloca ptr, align 8
  store ptr %0, ptr %3, align 8, !tbaa !76
  store ptr %1, ptr %4, align 8, !tbaa !78
  ret void
}

; Function Attrs: mustprogress nounwind uwtable
define linkonce_odr noundef nonnull align 8 dereferenceable(16) ptr @_ZN4absl12lts_2024072212log_internal10LogMessage14InternalStreamEv(ptr noundef nonnull align 8 dereferenceable(16) %0) #6 comdat align 2 {
  %2 = alloca ptr, align 8
  store ptr %0, ptr %2, align 8, !tbaa !78
  %3 = load ptr, ptr %2, align 8
  ret ptr %3
}

; Function Attrs: mustprogress nounwind uwtable
define linkonce_odr void @_ZNSt17basic_string_viewIcSt11char_traitsIcEEC2EPKc(ptr noundef nonnull align 8 dereferenceable(16) %0, ptr noundef nonnull %1) unnamed_addr #6 comdat align 2 personality ptr @__gxx_personality_v0 {
  %3 = alloca ptr, align 8
  %4 = alloca ptr, align 8
  store ptr %0, ptr %3, align 8, !tbaa !80
  store ptr %1, ptr %4, align 8, !tbaa !82
  %5 = load ptr, ptr %3, align 8
  %6 = getelementptr inbounds nuw %"class.std::basic_string_view", ptr %5, i32 0, i32 0
  %7 = load ptr, ptr %4, align 8, !tbaa !82
  %8 = invoke noundef i64 @_ZNSt11char_traitsIcE6lengthEPKc(ptr noundef %7)
          to label %9 unwind label %12

9:                                                ; preds = %2
  store i64 %8, ptr %6, align 8, !tbaa !84
  %10 = getelementptr inbounds nuw %"class.std::basic_string_view", ptr %5, i32 0, i32 1
  %11 = load ptr, ptr %4, align 8, !tbaa !82
  store ptr %11, ptr %10, align 8, !tbaa !86
  ret void

12:                                               ; preds = %2
  %13 = landingpad { ptr, i32 }
          catch ptr null
  %14 = extractvalue { ptr, i32 } %13, 0
  call void @__clang_call_terminate(ptr %14) #18
  unreachable
}

; Function Attrs: mustprogress uwtable
define linkonce_odr void @_ZN9grpc_core6Thread4JoinEv(ptr noundef nonnull align 8 dereferenceable(32) %0) #4 comdat align 2 {
  %2 = alloca ptr, align 8
  %3 = alloca %"class.absl::lts_20240722::log_internal::Voidify", align 1
  %4 = alloca %"class.absl::lts_20240722::log_internal::LogMessageFatal", align 8
  %5 = alloca i1, align 1
  %6 = alloca %"class.std::basic_string_view", align 8
  %7 = alloca i1, align 1
  store ptr %0, ptr %2, align 8, !tbaa !95
  %8 = load ptr, ptr %2, align 8
  %9 = getelementptr inbounds nuw %"class.grpc_core::Thread", ptr %8, i32 0, i32 1
  %10 = load ptr, ptr %9, align 8, !tbaa !101
  %11 = icmp ne ptr %10, null
  br i1 %11, label %12, label %28

12:                                               ; preds = %1
  %13 = getelementptr inbounds nuw %"class.grpc_core::Thread", ptr %8, i32 0, i32 1
  %14 = load ptr, ptr %13, align 8, !tbaa !101
  %15 = load ptr, ptr %14, align 8, !tbaa !8
  %16 = getelementptr inbounds ptr, ptr %15, i64 3
  %17 = load ptr, ptr %16, align 8
  call void %17(ptr noundef nonnull align 8 dereferenceable(8) %14)
  %18 = getelementptr inbounds nuw %"class.grpc_core::Thread", ptr %8, i32 0, i32 1
  %19 = load ptr, ptr %18, align 8, !tbaa !101
  %20 = icmp eq ptr %19, null
  br i1 %20, label %25, label %21

21:                                               ; preds = %12
  %22 = load ptr, ptr %19, align 8, !tbaa !8
  %23 = getelementptr inbounds ptr, ptr %22, i64 1
  %24 = load ptr, ptr %23, align 8
  call void %24(ptr noundef nonnull align 8 dereferenceable(8) %19) #3
  br label %25

25:                                               ; preds = %21, %12
  %26 = getelementptr inbounds nuw %"class.grpc_core::Thread", ptr %8, i32 0, i32 0
  store i32 3, ptr %26, align 8, !tbaa !97
  %27 = getelementptr inbounds nuw %"class.grpc_core::Thread", ptr %8, i32 0, i32 1
  store ptr null, ptr %27, align 8, !tbaa !101
  br label %51

28:                                               ; preds = %1
  %29 = getelementptr inbounds nuw %"class.grpc_core::Thread", ptr %8, i32 0, i32 0
  %30 = load i32, ptr %29, align 8, !tbaa !97
  %31 = icmp eq i32 %30, 4
  %32 = xor i1 %31, true
  %33 = zext i1 %32 to i64
  %34 = call i64 @llvm.expect.i64(i64 %33, i64 0)
  %35 = icmp ne i64 %34, 0
  call void @llvm.lifetime.start.p0(i64 1, ptr %3) #3
  store i1 false, ptr %5, align 1
  store i1 false, ptr %7, align 1
  br i1 %35, label %37, label %36

36:                                               ; preds = %28
  br label %43

37:                                               ; preds = %28
  call void @llvm.lifetime.start.p0(i64 16, ptr %4) #3
  store i1 true, ptr %5, align 1
  call void @_ZNSt17basic_string_viewIcSt11char_traitsIcEEC2EPKc(ptr noundef nonnull align 8 dereferenceable(16) %6, ptr noundef @.str.8) #3
  %38 = getelementptr inbounds nuw { i64, ptr }, ptr %6, i32 0, i32 0
  %39 = load i64, ptr %38, align 8
  %40 = getelementptr inbounds nuw { i64, ptr }, ptr %6, i32 0, i32 1
  %41 = load ptr, ptr %40, align 8
  call void @_ZN4absl12lts_2024072212log_internal15LogMessageFatalC1EPKciSt17basic_string_viewIcSt11char_traitsIcEE(ptr noundef nonnull align 8 dereferenceable(16) %4, ptr noundef @.str.7, i32 noundef 170, i64 %39, ptr %41) #19
  store i1 true, ptr %7, align 1
  %42 = call noundef nonnull align 8 dereferenceable(16) ptr @_ZN4absl12lts_2024072212log_internal10LogMessage14InternalStreamEv(ptr noundef nonnull align 8 dereferenceable(16) %4)
  call void @_ZNKO4absl12lts_2024072212log_internal7VoidifyaaINS1_10LogMessageEEEvRKT_(ptr noundef nonnull align 1 dereferenceable(1) %3, ptr noundef nonnull align 8 dereferenceable(16) %42)
  br label %43

43:                                               ; preds = %37, %36
  %44 = load i1, ptr %7, align 1
  br i1 %44, label %45, label %47

45:                                               ; preds = %43
  call void @_ZN4absl12lts_2024072212log_internal15LogMessageFatalD1Ev(ptr noundef nonnull align 8 dereferenceable(16) %4) #18
  unreachable

46:                                               ; No predecessors!
  br label %47

47:                                               ; preds = %46, %43
  %48 = load i1, ptr %5, align 1
  br i1 %48, label %49, label %50

49:                                               ; preds = %47
  call void @llvm.lifetime.end.p0(i64 16, ptr %4) #3
  br label %50

50:                                               ; preds = %49, %47
  call void @llvm.lifetime.end.p0(i64 1, ptr %3) #3
  br label %51

51:                                               ; preds = %50, %25
  ret void
}

; Function Attrs: mustprogress uwtable
define internal void @_ZL20gc_completed_threadsv() #4 {
  %1 = alloca ptr, align 8
  %2 = alloca ptr, align 8
  %3 = load ptr, ptr @_ZL19g_completed_threads, align 8, !tbaa !31
  %4 = icmp ne ptr %3, null
  br i1 %4, label %5, label %19

5:                                                ; preds = %0
  call void @llvm.lifetime.start.p0(i64 8, ptr %1) #3
  %6 = load ptr, ptr @_ZL19g_completed_threads, align 8, !tbaa !31
  store ptr %6, ptr %1, align 8, !tbaa !31
  store ptr null, ptr @_ZL19g_completed_threads, align 8, !tbaa !31
  call void @gpr_mu_unlock(ptr noundef @_ZL4g_mu)
  br label %7

7:                                                ; preds = %10, %5
  %8 = load ptr, ptr %1, align 8, !tbaa !31
  %9 = icmp ne ptr %8, null
  br i1 %9, label %10, label %18

10:                                               ; preds = %7
  %11 = load ptr, ptr %1, align 8, !tbaa !31
  %12 = getelementptr inbounds nuw %struct.completed_thread, ptr %11, i32 0, i32 0
  call void @_ZN9grpc_core6Thread4JoinEv(ptr noundef nonnull align 8 dereferenceable(32) %12)
  call void @llvm.lifetime.start.p0(i64 8, ptr %2) #3
  %13 = load ptr, ptr %1, align 8, !tbaa !31
  %14 = getelementptr inbounds nuw %struct.completed_thread, ptr %13, i32 0, i32 1
  %15 = load ptr, ptr %14, align 8, !tbaa !104
  store ptr %15, ptr %2, align 8, !tbaa !31
  %16 = load ptr, ptr %1, align 8, !tbaa !31
  call void @gpr_free(ptr noundef %16)
  %17 = load ptr, ptr %2, align 8, !tbaa !31
  store ptr %17, ptr %1, align 8, !tbaa !31
  call void @llvm.lifetime.end.p0(i64 8, ptr %2) #3
  br label %7, !llvm.loop !118

18:                                               ; preds = %7
  call void @gpr_mu_lock(ptr noundef @_ZL4g_mu)
  call void @llvm.lifetime.end.p0(i64 8, ptr %1) #3
  br label %19

19:                                               ; preds = %18, %0
  ret void
}