; Function Attrs: mustprogress uwtable
define internal fastcc void @_ZL20gc_completed_threadsv() unnamed_addr #6 personality ptr @__gxx_personality_v0 {
  %1 = alloca %"class.absl::lts_20240722::log_internal::LogMessageFatal", align 8
  %2 = load ptr, ptr @_ZL19g_completed_threads, align 8, !tbaa !35
  %.not = icmp eq ptr %2, null
  br i1 %.not, label %24, label %3

3:                                                ; preds = %0
  store ptr null, ptr @_ZL19g_completed_threads, align 8, !tbaa !35
  tail call void @gpr_mu_unlock(ptr noundef nonnull @_ZL4g_mu)
  br label %4

4:                                                ; preds = %3, %_ZN9grpc_core6Thread4JoinEv.exit
  %.07 = phi ptr [ %2, %3 ], [ %22, %_ZN9grpc_core6Thread4JoinEv.exit ]
  %5 = getelementptr inbounds nuw i8, ptr %.07, i64 8
  %6 = load ptr, ptr %5, align 8, !tbaa !50
  %.not.i = icmp eq ptr %6, null
  br i1 %.not.i, label %18, label %7

7:                                                ; preds = %4
  %8 = load ptr, ptr %6, align 8, !tbaa !3
  %9 = getelementptr inbounds nuw i8, ptr %8, i64 24
  %10 = load ptr, ptr %9, align 8
  tail call void %10(ptr noundef nonnull align 8 dereferenceable(8) %6)
  %11 = load ptr, ptr %5, align 8, !tbaa !50
  %12 = icmp eq ptr %11, null
  br i1 %12, label %17, label %13

13:                                               ; preds = %7
  %14 = load ptr, ptr %11, align 8, !tbaa !3
  %15 = getelementptr inbounds nuw i8, ptr %14, i64 8
  %16 = load ptr, ptr %15, align 8
  tail call void %16(ptr noundef nonnull align 8 dereferenceable(8) %11) #21
  br label %17

17:                                               ; preds = %13, %7
  store i32 3, ptr %.07, align 8, !tbaa !46
  store ptr null, ptr %5, align 8, !tbaa !50
  br label %_ZN9grpc_core6Thread4JoinEv.exit

18:                                               ; preds = %4
  %19 = load i32, ptr %.07, align 8, !tbaa !46
  %.not6.not.i = icmp eq i32 %19, 4
  br i1 %.not6.not.i, label %_ZN9grpc_core6Thread4JoinEv.exit, label %20, !prof !41

20:                                               ; preds = %18
  call void @llvm.lifetime.start.p0(i64 16, ptr nonnull %1) #21
  call void @_ZN4absl12lts_2024072212log_internal15LogMessageFatalC1EPKciSt17basic_string_viewIcSt11char_traitsIcEE(ptr noundef nonnull align 8 dereferenceable(16) %1, ptr noundef nonnull @.str.7, i32 noundef 170, i64 16, ptr nonnull @.str.8) #23
  call void @_ZN4absl12lts_2024072212log_internal15LogMessageFatalD1Ev(ptr noundef nonnull align 8 dereferenceable(16) %1) #22
  unreachable

_ZN9grpc_core6Thread4JoinEv.exit:                 ; preds = %17, %18
  %21 = getelementptr inbounds nuw i8, ptr %.07, i64 32
  %22 = load ptr, ptr %21, align 8, !tbaa !55
  tail call void @gpr_free(ptr noundef nonnull %.07)
  %.not6 = icmp eq ptr %22, null
  br i1 %.not6, label %23, label %4, !llvm.loop !57

23:                                               ; preds = %_ZN9grpc_core6Thread4JoinEv.exit
  tail call void @gpr_mu_lock(ptr noundef nonnull @_ZL4g_mu)
  br label %24

24:                                               ; preds = %23, %0
  ret void
}